; Function Attrs: mustprogress uwtable
define void @_ZN12colvarmodule11read_colvarERKNSt7__cxx1112basic_stringIcSt11char_traitsIcESaIcEEE(ptr dead_on_unwind noalias writable sret(%"class.std::__cxx11::basic_string") align 8 %0, ptr nocapture noundef nonnull readnone align 8 dereferenceable(616) %1, ptr noundef nonnull align 8 dereferenceable(32) %2) local_unnamed_addr #3 align 2 personality ptr @__gxx_personality_v0 {
  %4 = alloca %"class.std::__cxx11::basic_stringstream", align 8
  %5 = alloca %"class.std::__cxx11::basic_string", align 8
  tail call void @_ZN12colvarmodule14increase_depthEv()
  call void @_ZNSt7__cxx1118basic_stringstreamIcSt11char_traitsIcESaIcEEC1Ev(ptr noundef nonnull align 8 dereferenceable(128) %4)
  %6 = call noundef ptr @_ZN12colvarmodule14colvar_by_nameERKNSt7__cxx1112basic_stringIcSt11char_traitsIcESaIcEEE(ptr noundef nonnull align 8 dereferenceable(32) %2)
  %7 = icmp eq ptr %6, null
  br i1 %7, label %8, label %16

8:                                                ; preds = %3
  invoke void @_ZStplIcSt11char_traitsIcESaIcEENSt7__cxx1112basic_stringIT_T0_T1_EEPKS5_RKS8_(ptr dead_on_unwind nonnull writable sret(%"class.std::__cxx11::basic_string") align 8 %5, ptr noundef nonnull @.str.74, ptr noundef nonnull align 8 dereferenceable(32) %2)
          to label %9 unwind label %12

9:                                                ; preds = %8
  %10 = invoke noundef i32 @_ZN12colvarmodule5errorERKNSt7__cxx1112basic_stringIcSt11char_traitsIcESaIcEEEi(ptr noundef nonnull align 8 dereferenceable(32) %5, i32 noundef -1)
          to label %11 unwind label %14

11:                                               ; preds = %9
  call void @_ZNSt7__cxx1112basic_stringIcSt11char_traitsIcESaIcEED1Ev(ptr noundef nonnull align 8 dereferenceable(32) %5) #24
  call void @_ZNSt7__cxx1112basic_stringIcSt11char_traitsIcESaIcEEC1Ev(ptr noundef nonnull align 8 dereferenceable(32) %0) #24
  br label %22

12:                                               ; preds = %21, %20, %16, %8
  %13 = landingpad { ptr, i32 }
          cleanup
  br label %23

14:                                               ; preds = %9
  %15 = landingpad { ptr, i32 }
          cleanup
  call void @_ZNSt7__cxx1112basic_stringIcSt11char_traitsIcESaIcEED1Ev(ptr noundef nonnull align 8 dereferenceable(32) %5) #24
  br label %23

16:                                               ; preds = %3
  %17 = getelementptr inbounds i8, ptr %4, i64 16
  %18 = getelementptr inbounds i8, ptr %6, i64 672
  %19 = invoke noundef nonnull align 8 dereferenceable(8) ptr @_ZlsRSoRK11colvarvalue(ptr noundef nonnull align 8 dereferenceable(8) %17, ptr noundef nonnull align 8 dereferenceable(168) %18)
          to label %20 unwind label %12

20:                                               ; preds = %16
  invoke void @_ZN12colvarmodule14decrease_depthEv()
          to label %21 unwind label %12

21:                                               ; preds = %20
  invoke void @_ZNKSt7__cxx1118basic_stringstreamIcSt11char_traitsIcESaIcEE3strEv(ptr dead_on_unwind writable sret(%"class.std::__cxx11::basic_string") align 8 %0, ptr noundef nonnull align 8 dereferenceable(128) %4)
          to label %22 unwind label %12

22:                                               ; preds = %21, %11
  call void @_ZNSt7__cxx1118basic_stringstreamIcSt11char_traitsIcESaIcEED1Ev(ptr noundef nonnull align 8 dereferenceable(128) %4) #24
  ret void

23:                                               ; preds = %14, %12
  %.pn = phi { ptr, i32 } [ %15, %14 ], [ %13, %12 ]
  call void @_ZNSt7__cxx1118basic_stringstreamIcSt11char_traitsIcESaIcEED1Ev(ptr noundef nonnull align 8 dereferenceable(128) %4) #24
  resume { ptr, i32 } %.pn
}